; ModuleID = 'bench/hdf5/original/H5Ideprec.ll'
source_filename = "bench/hdf5/original/H5Ideprec.ll"
target datalayout = "e-m:e-p270:32:32-p271:32:32-p272:64:64-i64:64-i128:128-f80:128-n8:16:32:64-S128"
target triple = "x86_64-pc-linux-gnu"

%struct.H5CX_node_t = type { %struct.H5CX_t, ptr }
%struct.H5CX_t = type { i64, ptr, i64, ptr, i64, ptr, i64, ptr, i64, ptr, i64, ptr, i64, i32, i64, i8, ptr, i8, ptr, i8, i32, i8, [3 x double], i8, i64, i8, i32, i8, %struct.H5Z_cb_t, i8, ptr, i8, %struct.H5T_vlen_alloc_info_t, i8, %struct.H5T_conv_cb_t, i8, i32, i8, i8, i8, i32, i8, i8, i32, i8, i8, i32, i8, i32, i8, i64, i8, i8, i8, i8, i8, ptr, i8, ptr, i8, i32, i8, i32, i8, %struct.H5VL_connector_prop_t, i8, ptr, i8 }
%struct.H5Z_cb_t = type { ptr, ptr }
%struct.H5T_vlen_alloc_info_t = type { ptr, ptr, ptr, ptr }
%struct.H5T_conv_cb_t = type { ptr, ptr }
%struct.H5VL_connector_prop_t = type { ptr, ptr }

@H5_libinit_g = external local_unnamed_addr global i8, align 1
@H5_libterm_g = external local_unnamed_addr global i8, align 1
@.str = private unnamed_addr constant [103 x i8] c"generated/home/dtcxzyw/WorkSpace/Projects/compilers/llvm-opt-benchmark/bench/hdf5/hdf5/src/H5Ideprec.c\00", align 1
@__func__.H5Iregister_type1 = private unnamed_addr constant [18 x i8] c"H5Iregister_type1\00", align 1
@H5E_FUNC_g = external local_unnamed_addr global i64, align 8
@H5E_CANTINIT_g = external local_unnamed_addr global i64, align 8
@.str.1 = private unnamed_addr constant [30 x i8] c"library initialization failed\00", align 1
@H5I_init_g = external local_unnamed_addr global i8, align 1
@H5E_CANTSET_g = external local_unnamed_addr global i64, align 8
@.str.2 = private unnamed_addr constant [22 x i8] c"can't set API context\00", align 1
@H5E_ID_g = external local_unnamed_addr global i64, align 8
@.str.3 = private unnamed_addr constant [26 x i8] c"can't initialize ID class\00", align 1

; Function Attrs: nounwind uwtable
define i32 @H5Iregister_type1(i64 noundef %0, i32 noundef %1, ptr noundef %2) local_unnamed_addr #0 {
  %4 = alloca %struct.H5CX_node_t, align 8
  call void @llvm.lifetime.start.p0(i64 480, ptr nonnull %4) #4
  call void @llvm.memset.p0.i64(ptr noundef nonnull align 8 dereferenceable(480) %4, i8 0, i64 480, i1 false)
  %5 = load i8, ptr @H5_libinit_g, align 1, !tbaa !3, !range !7, !noundef !8
  %6 = trunc nuw i8 %5 to i1
  %7 = load i8, ptr @H5_libterm_g, align 1, !range !7
  %8 = trunc nuw i8 %7 to i1
  %9 = select i1 %6, i1 true, i1 %8
  br i1 %9, label %17, label %10, !prof !9

10:                                               ; preds = %3
  %11 = tail call i32 @H5_init_library() #4
  %12 = icmp slt i32 %11, 0
  br i1 %12, label %13, label %._crit_edge, !prof !10

._crit_edge:                                      ; preds = %10
  %.pre = load i8, ptr @H5_libterm_g, align 1, !range !7
  br label %17

13:                                               ; preds = %10
  %14 = load i64, ptr @H5E_FUNC_g, align 8, !tbaa !11
  %15 = load i64, ptr @H5E_CANTINIT_g, align 8, !tbaa !11
  %16 = tail call i32 (ptr, ptr, i32, i64, i64, ptr, ...) @H5E_printf_stack(ptr noundef nonnull @.str, ptr noundef nonnull @__func__.H5Iregister_type1, i32 noundef 89, i64 noundef %14, i64 noundef %15, ptr noundef nonnull @.str.1) #4
  br label %.thread18

17:                                               ; preds = %._crit_edge, %3
  %18 = phi i8 [ %.pre, %._crit_edge ], [ %7, %3 ]
  %19 = load i8, ptr @H5I_init_g, align 1, !tbaa !3, !range !7, !noundef !8
  %20 = trunc nuw i8 %19 to i1
  %21 = trunc nuw i8 %18 to i1
  %22 = select i1 %20, i1 true, i1 %21
  br i1 %22, label %24, label %23, !prof !9

23:                                               ; preds = %17
  store i8 1, ptr @H5I_init_g, align 1, !tbaa !3
  br label %24

24:                                               ; preds = %17, %23
  %25 = call i32 @H5CX_push(ptr noundef nonnull %4) #4
  %26 = icmp slt i32 %25, 0
  br i1 %26, label %27, label %31, !prof !10

27:                                               ; preds = %24
  %28 = load i64, ptr @H5E_FUNC_g, align 8, !tbaa !11
  %29 = load i64, ptr @H5E_CANTSET_g, align 8, !tbaa !11
  %30 = call i32 (ptr, ptr, i32, i64, i64, ptr, ...) @H5E_printf_stack(ptr noundef nonnull @.str, ptr noundef nonnull @__func__.H5Iregister_type1, i32 noundef 89, i64 noundef %28, i64 noundef %29, ptr noundef nonnull @.str.2) #4
  br label %.thread18

31:                                               ; preds = %24
  %32 = call i32 @H5E_clear_stack() #4
  %33 = call i32 @H5I__register_type_common(i32 noundef %1, ptr noundef %2) #4
  %34 = icmp eq i32 %33, -1
  br i1 %34, label %.thread23, label %39, !prof !13

.thread23:                                        ; preds = %31
  %35 = load i64, ptr @H5E_ID_g, align 8, !tbaa !11
  %36 = load i64, ptr @H5E_CANTINIT_g, align 8, !tbaa !11
  %37 = call i32 (ptr, ptr, i32, i64, i64, ptr, ...) @H5E_printf_stack(ptr noundef nonnull @.str, ptr noundef nonnull @__func__.H5Iregister_type1, i32 noundef 92, i64 noundef %35, i64 noundef %36, ptr noundef nonnull @.str.3) #4
  %38 = call i32 @H5CX_pop(i1 noundef zeroext true) #4
  br label %.thread18

39:                                               ; preds = %31
  %40 = call i32 @H5CX_pop(i1 noundef zeroext true) #4
  br label %42

.thread18:                                        ; preds = %27, %13, %.thread23
  %41 = call i32 @H5E_dump_api_stack() #4
  br label %42

42:                                               ; preds = %39, %.thread18
  %.081321 = phi i32 [ -1, %.thread18 ], [ %33, %39 ]
  call void @llvm.lifetime.end.p0(i64 480, ptr nonnull %4) #4
  ret i32 %.081321
}

; Function Attrs: mustprogress nocallback nofree nosync nounwind willreturn memory(argmem: readwrite)
declare void @llvm.lifetime.start.p0(i64 immarg, ptr captures(none)) #1

; Function Attrs: mustprogress nocallback nofree nounwind willreturn memory(argmem: write)
declare void @llvm.memset.p0.i64(ptr writeonly captures(none), i8, i64, i1 immarg) #2

declare i32 @H5_init_library() local_unnamed_addr #3

declare i32 @H5E_printf_stack(ptr noundef, ptr noundef, i32 noundef, i64 noundef, i64 noundef, ptr noundef, ...) local_unnamed_addr #3

declare i32 @H5CX_push(ptr noundef) local_unnamed_addr #3

declare i32 @H5E_clear_stack() local_unnamed_addr #3

declare i32 @H5I__register_type_common(i32 noundef, ptr noundef) local_unnamed_addr #3

declare i32 @H5CX_pop(i1 noundef zeroext) local_unnamed_addr #3

declare i32 @H5E_dump_api_stack() local_unnamed_addr #3

; Function Attrs: mustprogress nocallback nofree nosync nounwind willreturn memory(argmem: readwrite)
declare void @llvm.lifetime.end.p0(i64 immarg, ptr captures(none)) #1


!llvm.module.flags = !{!0, !1, !2}

!0 = !{i32 1, !"wchar_size", i32 4}
!1 = !{i32 8, !"PIC Level", i32 2}
!2 = !{i32 7, !"uwtable", i32 2}
!3 = !{!4, !4, i64 0}
!4 = !{!"_Bool", !5, i64 0}
!5 = !{!"omnipotent char", !6, i64 0}
!6 = !{!"Simple C/C++ TBAA"}
!7 = !{i8 0, i8 2}
!8 = !{}
!9 = !{!"branch_weights", !"expected", i32 2000, i32 1}
!10 = !{!"branch_weights", !"expected", i32 1, i32 2000}
!11 = !{!12, !12, i64 0}
!12 = !{!"long", !5, i64 0}
!13 = !{!"branch_weights", i32 0, i32 -2147483648}
